target datalayout = "e-m:e-p270:32:32-p271:32:32-p272:64:64-i64:64-i128:128-f80:128-n8:16:32:64-S128"
target triple = "x86_64-pc-linux-gnu"

@enable_error_stack = external global i32, align 4
@H5tools_ERR_STACK_g = external global i64, align 8
@H5tools_ERR_CLS_g = external global i64, align 8
@.str = private unnamed_addr constant [122 x i8] c"generated/home/dtcxzyw/WorkSpace/Projects/compilers/llvm-opt-benchmark/bench/hdf5/hdf5/tools/src/h5repack/h5repack_copy.c\00", align 1
@H5E_tools_g = external global i64, align 8
@H5E_tools_min_id_g = external global i64, align 8
@stderr = external global ptr, align 8
@.str.3 = private unnamed_addr constant [2 x i8] c"\0A\00", align 1
@__func__.copy_user_block = private unnamed_addr constant [16 x i8] c"copy_user_block\00", align 1
@.str.105 = private unnamed_addr constant [30 x i8] c"HDopen failed input file <%s>\00", align 1
@.str.106 = private unnamed_addr constant [31 x i8] c"HDopen failed output file <%s>\00", align 1
@.str.107 = private unnamed_addr constant [32 x i8] c"HDread failed to read userblock\00", align 1
@.str.108 = private unnamed_addr constant [15 x i8] c"HDwrite failed\00", align 1

; Function Attrs: nounwind uwtable
define internal i32 @copy_user_block(ptr noundef %0, ptr noundef %1, i64 noundef %2) #0 {
  %4 = alloca i32, align 4
  %5 = alloca ptr, align 8
  %6 = alloca ptr, align 8
  %7 = alloca i64, align 8
  %8 = alloca i32, align 4
  %9 = alloca i32, align 4
  %10 = alloca i32, align 4
  %11 = alloca i64, align 8
  %12 = alloca i64, align 8
  %13 = alloca [512 x i8], align 16
  %14 = alloca ptr, align 8
  %15 = alloca i64, align 8
  %16 = alloca i32, align 4
  store ptr %0, ptr %5, align 8, !tbaa !4
  store ptr %1, ptr %6, align 8, !tbaa !4
  store i64 %2, ptr %7, align 8, !tbaa !10
  call void @llvm.lifetime.start.p0(i64 4, ptr %8) #8
  store i32 -1, ptr %8, align 4, !tbaa !14
  call void @llvm.lifetime.start.p0(i64 4, ptr %9) #8
  store i32 -1, ptr %9, align 4, !tbaa !14
  call void @llvm.lifetime.start.p0(i64 4, ptr %10) #8
  store i32 0, ptr %10, align 4, !tbaa !14
  %17 = load ptr, ptr %5, align 8, !tbaa !4
  %18 = call i32 (ptr, i32, ...) @open64(ptr noundef %17, i32 noundef 0)
  store i32 %18, ptr %8, align 4, !tbaa !14
  %19 = icmp slt i32 %18, 0
  br i1 %19, label %20, label %53

20:                                               ; preds = %3
  br label %21

21:                                               ; preds = %20
  br label %22

22:                                               ; preds = %21
  %23 = load i32, ptr @enable_error_stack, align 4, !tbaa !14
  %24 = icmp sgt i32 %23, 0
  br i1 %24, label %25, label %45

25:                                               ; preds = %22
  %26 = load i64, ptr @H5tools_ERR_STACK_g, align 8, !tbaa !10
  %27 = icmp sge i64 %26, 0
  br i1 %27, label %28, label %38

28:                                               ; preds = %25
  %29 = load i64, ptr @H5tools_ERR_CLS_g, align 8, !tbaa !10
  %30 = icmp sge i64 %29, 0
  br i1 %30, label %31, label %38

31:                                               ; preds = %28
  %32 = load i64, ptr @H5tools_ERR_STACK_g, align 8, !tbaa !10
  %33 = load i64, ptr @H5tools_ERR_CLS_g, align 8, !tbaa !10
  %34 = load i64, ptr @H5E_tools_g, align 8, !tbaa !10
  %35 = load i64, ptr @H5E_tools_min_id_g, align 8, !tbaa !10
  %36 = load ptr, ptr %5, align 8, !tbaa !4
  %37 = call i32 (i64, ptr, ptr, i32, i64, i64, i64, ptr, ...) @H5Epush2(i64 noundef %32, ptr noundef @.str, ptr noundef @__func__.copy_user_block, i32 noundef 1642, i64 noundef %33, i64 noundef %34, i64 noundef %35, ptr noundef @.str.105, ptr noundef %36)
  br label %44

38:                                               ; preds = %28, %25
  %39 = load ptr, ptr @stderr, align 8, !tbaa !25
  %40 = load ptr, ptr %5, align 8, !tbaa !4
  %41 = call i32 (ptr, ptr, ...) @fprintf(ptr noundef %39, ptr noundef @.str.105, ptr noundef %40) #8
  %42 = load ptr, ptr @stderr, align 8, !tbaa !25
  %43 = call i32 (ptr, ptr, ...) @fprintf(ptr noundef %42, ptr noundef @.str.3) #8
  br label %44

44:                                               ; preds = %38, %31
  br label %45

45:                                               ; preds = %44, %22
  br label %46

46:                                               ; preds = %45
  br label %47

47:                                               ; preds = %46
  br label %48

48:                                               ; preds = %47
  store i32 -1, ptr %10, align 4, !tbaa !14
  br label %213

49:                                               ; No predecessors!
  br label %50

50:                                               ; preds = %49
  br label %51

51:                                               ; preds = %50
  br label %52

52:                                               ; preds = %51
  br label %53

53:                                               ; preds = %52, %3
  %54 = load ptr, ptr %6, align 8, !tbaa !4
  %55 = call i32 (ptr, i32, ...) @open64(ptr noundef %54, i32 noundef 1)
  store i32 %55, ptr %9, align 4, !tbaa !14
  %56 = icmp slt i32 %55, 0
  br i1 %56, label %57, label %90

57:                                               ; preds = %53
  br label %58

58:                                               ; preds = %57
  br label %59

59:                                               ; preds = %58
  %60 = load i32, ptr @enable_error_stack, align 4, !tbaa !14
  %61 = icmp sgt i32 %60, 0
  br i1 %61, label %62, label %82

62:                                               ; preds = %59
  %63 = load i64, ptr @H5tools_ERR_STACK_g, align 8, !tbaa !10
  %64 = icmp sge i64 %63, 0
  br i1 %64, label %65, label %75

65:                                               ; preds = %62
  %66 = load i64, ptr @H5tools_ERR_CLS_g, align 8, !tbaa !10
  %67 = icmp sge i64 %66, 0
  br i1 %67, label %68, label %75

68:                                               ; preds = %65
  %69 = load i64, ptr @H5tools_ERR_STACK_g, align 8, !tbaa !10
  %70 = load i64, ptr @H5tools_ERR_CLS_g, align 8, !tbaa !10
  %71 = load i64, ptr @H5E_tools_g, align 8, !tbaa !10
  %72 = load i64, ptr @H5E_tools_min_id_g, align 8, !tbaa !10
  %73 = load ptr, ptr %6, align 8, !tbaa !4
  %74 = call i32 (i64, ptr, ptr, i32, i64, i64, i64, ptr, ...) @H5Epush2(i64 noundef %69, ptr noundef @.str, ptr noundef @__func__.copy_user_block, i32 noundef 1644, i64 noundef %70, i64 noundef %71, i64 noundef %72, ptr noundef @.str.106, ptr noundef %73)
  br label %81

75:                                               ; preds = %65, %62
  %76 = load ptr, ptr @stderr, align 8, !tbaa !25
  %77 = load ptr, ptr %6, align 8, !tbaa !4
  %78 = call i32 (ptr, ptr, ...) @fprintf(ptr noundef %76, ptr noundef @.str.106, ptr noundef %77) #8
  %79 = load ptr, ptr @stderr, align 8, !tbaa !25
  %80 = call i32 (ptr, ptr, ...) @fprintf(ptr noundef %79, ptr noundef @.str.3) #8
  br label %81

81:                                               ; preds = %75, %68
  br label %82

82:                                               ; preds = %81, %59
  br label %83

83:                                               ; preds = %82
  br label %84

84:                                               ; preds = %83
  br label %85

85:                                               ; preds = %84
  store i32 -1, ptr %10, align 4, !tbaa !14
  br label %213

86:                                               ; No predecessors!
  br label %87

87:                                               ; preds = %86
  br label %88

88:                                               ; preds = %87
  br label %89

89:                                               ; preds = %88
  br label %90

90:                                               ; preds = %89, %53
  br label %91

91:                                               ; preds = %211, %90
  %92 = load i64, ptr %7, align 8, !tbaa !10
  %93 = icmp ugt i64 %92, 0
  br i1 %93, label %94, label %212

94:                                               ; preds = %91
  call void @llvm.lifetime.start.p0(i64 8, ptr %11) #8
  call void @llvm.lifetime.start.p0(i64 8, ptr %12) #8
  call void @llvm.lifetime.start.p0(i64 512, ptr %13) #8
  call void @llvm.lifetime.start.p0(i64 8, ptr %14) #8
  %95 = load i64, ptr %7, align 8, !tbaa !10
  %96 = icmp ugt i64 %95, 512
  br i1 %96, label %97, label %101

97:                                               ; preds = %94
  %98 = load i32, ptr %8, align 4, !tbaa !14
  %99 = getelementptr inbounds [512 x i8], ptr %13, i64 0, i64 0
  %100 = call i64 @read(i32 noundef %98, ptr noundef %99, i64 noundef 512)
  store i64 %100, ptr %11, align 8, !tbaa !10
  br label %106

101:                                              ; preds = %94
  %102 = load i32, ptr %8, align 4, !tbaa !14
  %103 = getelementptr inbounds [512 x i8], ptr %13, i64 0, i64 0
  %104 = load i64, ptr %7, align 8, !tbaa !10
  %105 = call i64 @read(i32 noundef %102, ptr noundef %103, i64 noundef %104)
  store i64 %105, ptr %11, align 8, !tbaa !10
  br label %106

106:                                              ; preds = %101, %97
  %107 = load i64, ptr %11, align 8, !tbaa !10
  %108 = icmp slt i64 %107, 0
  br i1 %108, label %109, label %140

109:                                              ; preds = %106
  br label %110

110:                                              ; preds = %109
  br label %111

111:                                              ; preds = %110
  %112 = load i32, ptr @enable_error_stack, align 4, !tbaa !14
  %113 = icmp sgt i32 %112, 0
  br i1 %113, label %114, label %132

114:                                              ; preds = %111
  %115 = load i64, ptr @H5tools_ERR_STACK_g, align 8, !tbaa !10
  %116 = icmp sge i64 %115, 0
  br i1 %116, label %117, label %126

117:                                              ; preds = %114
  %118 = load i64, ptr @H5tools_ERR_CLS_g, align 8, !tbaa !10
  %119 = icmp sge i64 %118, 0
  br i1 %119, label %120, label %126

120:                                              ; preds = %117
  %121 = load i64, ptr @H5tools_ERR_STACK_g, align 8, !tbaa !10
  %122 = load i64, ptr @H5tools_ERR_CLS_g, align 8, !tbaa !10
  %123 = load i64, ptr @H5E_tools_g, align 8, !tbaa !10
  %124 = load i64, ptr @H5E_tools_min_id_g, align 8, !tbaa !10
  %125 = call i32 (i64, ptr, ptr, i32, i64, i64, i64, ptr, ...) @H5Epush2(i64 noundef %121, ptr noundef @.str, ptr noundef @__func__.copy_user_block, i32 noundef 1658, i64 noundef %122, i64 noundef %123, i64 noundef %124, ptr noundef @.str.107)
  br label %131

126:                                              ; preds = %117, %114
  %127 = load ptr, ptr @stderr, align 8, !tbaa !25
  %128 = call i32 (ptr, ptr, ...) @fprintf(ptr noundef %127, ptr noundef @.str.107) #8
  %129 = load ptr, ptr @stderr, align 8, !tbaa !25
  %130 = call i32 (ptr, ptr, ...) @fprintf(ptr noundef %129, ptr noundef @.str.3) #8
  br label %131

131:                                              ; preds = %126, %120
  br label %132

132:                                              ; preds = %131, %111
  br label %133

133:                                              ; preds = %132
  br label %134

134:                                              ; preds = %133
  br label %135

135:                                              ; preds = %134
  store i32 -1, ptr %10, align 4, !tbaa !14
  store i32 8, ptr %16, align 4
  br label %209

136:                                              ; No predecessors!
  br label %137

137:                                              ; preds = %136
  br label %138

138:                                              ; preds = %137
  br label %139

139:                                              ; preds = %138
  br label %140

140:                                              ; preds = %139, %106
  %141 = load i64, ptr %11, align 8, !tbaa !10
  store i64 %141, ptr %12, align 8, !tbaa !10
  %142 = getelementptr inbounds [512 x i8], ptr %13, i64 0, i64 0
  store ptr %142, ptr %14, align 8, !tbaa !4
  br label %143

143:                                              ; preds = %204, %140
  %144 = load i64, ptr %12, align 8, !tbaa !10
  %145 = icmp sgt i64 %144, 0
  br i1 %145, label %146, label %205

146:                                              ; preds = %143
  call void @llvm.lifetime.start.p0(i64 8, ptr %15) #8
  br label %147

147:                                              ; preds = %159, %146
  %148 = load i32, ptr %9, align 4, !tbaa !14
  %149 = load ptr, ptr %14, align 8, !tbaa !4
  %150 = load i64, ptr %12, align 8, !tbaa !10
  %151 = call i64 @write(i32 noundef %148, ptr noundef %149, i64 noundef %150)
  store i64 %151, ptr %15, align 8, !tbaa !10
  br label %152

152:                                              ; preds = %147
  %153 = load i64, ptr %15, align 8, !tbaa !10
  %154 = icmp eq i64 -1, %153
  br i1 %154, label %155, label %159

155:                                              ; preds = %152
  %156 = call ptr @__errno_location() #11
  %157 = load i32, ptr %156, align 4, !tbaa !14
  %158 = icmp eq i32 4, %157
  br label %159

159:                                              ; preds = %155, %152
  %160 = phi i1 [ false, %152 ], [ %158, %155 ]
  br i1 %160, label %147, label %161, !llvm.loop !92

161:                                              ; preds = %159
  %162 = load i64, ptr %15, align 8, !tbaa !10
  %163 = icmp eq i64 -1, %162
  br i1 %163, label %164, label %195

164:                                              ; preds = %161
  br label %165

165:                                              ; preds = %164
  br label %166

166:                                              ; preds = %165
  %167 = load i32, ptr @enable_error_stack, align 4, !tbaa !14
  %168 = icmp sgt i32 %167, 0
  br i1 %168, label %169, label %187

169:                                              ; preds = %166
  %170 = load i64, ptr @H5tools_ERR_STACK_g, align 8, !tbaa !10
  %171 = icmp sge i64 %170, 0
  br i1 %171, label %172, label %181

172:                                              ; preds = %169
  %173 = load i64, ptr @H5tools_ERR_CLS_g, align 8, !tbaa !10
  %174 = icmp sge i64 %173, 0
  br i1 %174, label %175, label %181

175:                                              ; preds = %172
  %176 = load i64, ptr @H5tools_ERR_STACK_g, align 8, !tbaa !10
  %177 = load i64, ptr @H5tools_ERR_CLS_g, align 8, !tbaa !10
  %178 = load i64, ptr @H5E_tools_g, align 8, !tbaa !10
  %179 = load i64, ptr @H5E_tools_min_id_g, align 8, !tbaa !10
  %180 = call i32 (i64, ptr, ptr, i32, i64, i64, i64, ptr, ...) @H5Epush2(i64 noundef %176, ptr noundef @.str, ptr noundef @__func__.copy_user_block, i32 noundef 1671, i64 noundef %177, i64 noundef %178, i64 noundef %179, ptr noundef @.str.108)
  br label %186

181:                                              ; preds = %172, %169
  %182 = load ptr, ptr @stderr, align 8, !tbaa !25
  %183 = call i32 (ptr, ptr, ...) @fprintf(ptr noundef %182, ptr noundef @.str.108) #8
  %184 = load ptr, ptr @stderr, align 8, !tbaa !25
  %185 = call i32 (ptr, ptr, ...) @fprintf(ptr noundef %184, ptr noundef @.str.3) #8
  br label %186

186:                                              ; preds = %181, %175
  br label %187

187:                                              ; preds = %186, %166
  br label %188

188:                                              ; preds = %187
  br label %189

189:                                              ; preds = %188
  br label %190

190:                                              ; preds = %189
  store i32 -1, ptr %10, align 4, !tbaa !14
  store i32 8, ptr %16, align 4
  br label %202

191:                                              ; No predecessors!
  br label %192

192:                                              ; preds = %191
  br label %193

193:                                              ; preds = %192
  br label %194

194:                                              ; preds = %193
  br label %195

195:                                              ; preds = %194, %161
  %196 = load i64, ptr %15, align 8, !tbaa !10
  %197 = load i64, ptr %12, align 8, !tbaa !10
  %198 = sub nsw i64 %197, %196
  store i64 %198, ptr %12, align 8, !tbaa !10
  %199 = load i64, ptr %15, align 8, !tbaa !10
  %200 = load ptr, ptr %14, align 8, !tbaa !4
  %201 = getelementptr inbounds i8, ptr %200, i64 %199
  store ptr %201, ptr %14, align 8, !tbaa !4
  store i32 0, ptr %16, align 4
  br label %202

202:                                              ; preds = %190, %195
  call void @llvm.lifetime.end.p0(i64 8, ptr %15) #8
  %203 = load i32, ptr %16, align 4
  switch i32 %203, label %209 [
    i32 0, label %204
  ]

204:                                              ; preds = %202
  br label %143, !llvm.loop !93

205:                                              ; preds = %143
  %206 = load i64, ptr %7, align 8, !tbaa !10
  %207 = load i64, ptr %11, align 8, !tbaa !10
  %208 = sub i64 %206, %207
  store i64 %208, ptr %7, align 8, !tbaa !10
  store i32 0, ptr %16, align 4
  br label %209

209:                                              ; preds = %135, %205, %202
  call void @llvm.lifetime.end.p0(i64 8, ptr %14) #8
  call void @llvm.lifetime.end.p0(i64 512, ptr %13) #8
  call void @llvm.lifetime.end.p0(i64 8, ptr %12) #8
  call void @llvm.lifetime.end.p0(i64 8, ptr %11) #8
  %210 = load i32, ptr %16, align 4
  switch i32 %210, label %227 [
    i32 0, label %211
    i32 8, label %213
  ]

211:                                              ; preds = %209
  br label %91, !llvm.loop !94

212:                                              ; preds = %91
  br label %213

213:                                              ; preds = %212, %209, %85, %48
  %214 = load i32, ptr %8, align 4, !tbaa !14
  %215 = icmp sge i32 %214, 0
  br i1 %215, label %216, label %219

216:                                              ; preds = %213
  %217 = load i32, ptr %8, align 4, !tbaa !14
  %218 = call i32 @close(i32 noundef %217)
  br label %219

219:                                              ; preds = %216, %213
  %220 = load i32, ptr %9, align 4, !tbaa !14
  %221 = icmp sge i32 %220, 0
  br i1 %221, label %222, label %225

222:                                              ; preds = %219
  %223 = load i32, ptr %9, align 4, !tbaa !14
  %224 = call i32 @close(i32 noundef %223)
  br label %225

225:                                              ; preds = %222, %219
  %226 = load i32, ptr %10, align 4, !tbaa !14
  store i32 %226, ptr %4, align 4
  store i32 1, ptr %16, align 4
  br label %227

227:                                              ; preds = %225, %209
  call void @llvm.lifetime.end.p0(i64 4, ptr %10) #8
  call void @llvm.lifetime.end.p0(i64 4, ptr %9) #8
  call void @llvm.lifetime.end.p0(i64 4, ptr %8) #8
  %228 = load i32, ptr %4, align 4
  ret i32 %228
}