; Function Attrs: nounwind uwtable
define internal fastcc range(i32 -1, 1) i32 @copy_user_block(ptr noundef %0, ptr noundef %1, i64 noundef range(i64 1, 0) %2) unnamed_addr #0 {
  %4 = alloca [512 x i8], align 16
  %5 = tail call i32 (ptr, i32, ...) @open64(ptr noundef %0, i32 noundef 0) #15
  %6 = icmp slt i32 %5, 0
  br i1 %6, label %7, label %23

7:                                                ; preds = %3
  %8 = load i32, ptr @enable_error_stack, align 4, !tbaa !22
  %9 = icmp sgt i32 %8, 0
  br i1 %9, label %10, label %.thread88

10:                                               ; preds = %7
  %11 = load i64, ptr @H5tools_ERR_STACK_g, align 8, !tbaa !9
  %12 = icmp sgt i64 %11, -1
  %13 = load i64, ptr @H5tools_ERR_CLS_g, align 8
  %14 = icmp sgt i64 %13, -1
  %or.cond = select i1 %12, i1 %14, i1 false
  br i1 %or.cond, label %15, label %19

15:                                               ; preds = %10
  %16 = load i64, ptr @H5E_tools_g, align 8, !tbaa !9
  %17 = load i64, ptr @H5E_tools_min_id_g, align 8, !tbaa !9
  %18 = tail call i32 (i64, ptr, ptr, i32, i64, i64, i64, ptr, ...) @H5Epush2(i64 noundef %11, ptr noundef nonnull @.str, ptr noundef nonnull @__func__.copy_user_block, i32 noundef 1642, i64 noundef %13, i64 noundef %16, i64 noundef %17, ptr noundef nonnull @.str.105, ptr noundef %0) #15
  br label %.thread88

19:                                               ; preds = %10
  %20 = load ptr, ptr @stderr, align 8, !tbaa !23
  %21 = tail call i32 (ptr, ptr, ...) @fprintf(ptr noundef %20, ptr noundef nonnull @.str.105, ptr noundef %0) #16
  %22 = load ptr, ptr @stderr, align 8, !tbaa !23
  %fputc65 = tail call i32 @fputc(i32 10, ptr %22)
  br label %.thread88

23:                                               ; preds = %3
  %24 = tail call i32 (ptr, i32, ...) @open64(ptr noundef %1, i32 noundef 1) #15
  %25 = icmp slt i32 %24, 0
  br i1 %25, label %26, label %.preheader93

26:                                               ; preds = %23
  %27 = load i32, ptr @enable_error_stack, align 4, !tbaa !22
  %28 = icmp sgt i32 %27, 0
  br i1 %28, label %29, label %.thread77.thread

29:                                               ; preds = %26
  %30 = load i64, ptr @H5tools_ERR_STACK_g, align 8, !tbaa !9
  %31 = icmp sgt i64 %30, -1
  %32 = load i64, ptr @H5tools_ERR_CLS_g, align 8
  %33 = icmp sgt i64 %32, -1
  %or.cond3 = select i1 %31, i1 %33, i1 false
  br i1 %or.cond3, label %34, label %38

34:                                               ; preds = %29
  %35 = load i64, ptr @H5E_tools_g, align 8, !tbaa !9
  %36 = load i64, ptr @H5E_tools_min_id_g, align 8, !tbaa !9
  %37 = tail call i32 (i64, ptr, ptr, i32, i64, i64, i64, ptr, ...) @H5Epush2(i64 noundef %30, ptr noundef nonnull @.str, ptr noundef nonnull @__func__.copy_user_block, i32 noundef 1644, i64 noundef %32, i64 noundef %35, i64 noundef %36, ptr noundef nonnull @.str.106, ptr noundef %1) #15
  br label %.thread77.thread

38:                                               ; preds = %29
  %39 = load ptr, ptr @stderr, align 8, !tbaa !23
  %40 = tail call i32 (ptr, ptr, ...) @fprintf(ptr noundef %39, ptr noundef nonnull @.str.106, ptr noundef %1) #16
  %41 = load ptr, ptr @stderr, align 8, !tbaa !23
  %fputc64 = tail call i32 @fputc(i32 10, ptr %41)
  br label %.thread77.thread

.preheader93:                                     ; preds = %23, %._crit_edge
  %.04897 = phi i64 [ %85, %._crit_edge ], [ %2, %23 ]
  call void @llvm.lifetime.start.p0(i64 512, ptr nonnull %4) #15
  %..04897 = tail call i64 @llvm.umin.i64(i64 %.04897, i64 512)
  %42 = call i64 @read(i32 noundef %5, ptr noundef nonnull %4, i64 noundef %..04897) #15
  %43 = icmp slt i64 %42, 0
  br i1 %43, label %44, label %.preheader92

.preheader92:                                     ; preds = %.preheader93
  %.not98 = icmp eq i64 %42, 0
  br i1 %.not98, label %._crit_edge, label %.preheader

44:                                               ; preds = %.preheader93
  %45 = load i32, ptr @enable_error_stack, align 4, !tbaa !22
  %46 = icmp sgt i32 %45, 0
  br i1 %46, label %47, label %.thread72

47:                                               ; preds = %44
  %48 = load i64, ptr @H5tools_ERR_STACK_g, align 8, !tbaa !9
  %49 = icmp sgt i64 %48, -1
  %50 = load i64, ptr @H5tools_ERR_CLS_g, align 8
  %51 = icmp sgt i64 %50, -1
  %or.cond5 = select i1 %49, i1 %51, i1 false
  br i1 %or.cond5, label %52, label %56

52:                                               ; preds = %47
  %53 = load i64, ptr @H5E_tools_g, align 8, !tbaa !9
  %54 = load i64, ptr @H5E_tools_min_id_g, align 8, !tbaa !9
  %55 = tail call i32 (i64, ptr, ptr, i32, i64, i64, i64, ptr, ...) @H5Epush2(i64 noundef %48, ptr noundef nonnull @.str, ptr noundef nonnull @__func__.copy_user_block, i32 noundef 1658, i64 noundef %50, i64 noundef %53, i64 noundef %54, ptr noundef nonnull @.str.107) #15
  br label %.thread72

56:                                               ; preds = %47
  %57 = load ptr, ptr @stderr, align 8, !tbaa !23
  %58 = tail call i64 @fwrite(ptr nonnull @.str.107, i64 31, i64 1, ptr %57) #17
  %59 = load ptr, ptr @stderr, align 8, !tbaa !23
  %fputc63 = tail call i32 @fputc(i32 10, ptr %59)
  br label %.thread72

.preheader:                                       ; preds = %.preheader92, %81
  %.04096 = phi ptr [ %83, %81 ], [ %4, %.preheader92 ]
  %.04295 = phi i64 [ %82, %81 ], [ %42, %.preheader92 ]
  br label %60

60:                                               ; preds = %.preheader, %62
  %61 = call i64 @write(i32 noundef %24, ptr noundef %.04096, i64 noundef %.04295) #15
  %.not62 = icmp eq i64 %61, -1
  br i1 %.not62, label %62, label %81

62:                                               ; preds = %60
  %63 = tail call ptr @__errno_location() #20
  %64 = load i32, ptr %63, align 4, !tbaa !22
  %65 = icmp eq i32 %64, 4
  br i1 %65, label %60, label %.critedge, !llvm.loop !91

.critedge:                                        ; preds = %62
  %66 = load i32, ptr @enable_error_stack, align 4, !tbaa !22
  %67 = icmp sgt i32 %66, 0
  br i1 %67, label %68, label %.thread72

68:                                               ; preds = %.critedge
  %69 = load i64, ptr @H5tools_ERR_STACK_g, align 8, !tbaa !9
  %70 = icmp sgt i64 %69, -1
  %71 = load i64, ptr @H5tools_ERR_CLS_g, align 8
  %72 = icmp sgt i64 %71, -1
  %or.cond7 = select i1 %70, i1 %72, i1 false
  br i1 %or.cond7, label %73, label %77

73:                                               ; preds = %68
  %74 = load i64, ptr @H5E_tools_g, align 8, !tbaa !9
  %75 = load i64, ptr @H5E_tools_min_id_g, align 8, !tbaa !9
  %76 = tail call i32 (i64, ptr, ptr, i32, i64, i64, i64, ptr, ...) @H5Epush2(i64 noundef %69, ptr noundef nonnull @.str, ptr noundef nonnull @__func__.copy_user_block, i32 noundef 1671, i64 noundef %71, i64 noundef %74, i64 noundef %75, ptr noundef nonnull @.str.108) #15
  br label %.thread72

77:                                               ; preds = %68
  %78 = load ptr, ptr @stderr, align 8, !tbaa !23
  %79 = tail call i64 @fwrite(ptr nonnull @.str.108, i64 14, i64 1, ptr %78) #17
  %80 = load ptr, ptr @stderr, align 8, !tbaa !23
  %fputc = tail call i32 @fputc(i32 10, ptr %80)
  br label %.thread72

81:                                               ; preds = %60
  %82 = sub nsw i64 %.04295, %61
  %83 = getelementptr inbounds i8, ptr %.04096, i64 %61
  %84 = icmp sgt i64 %82, 0
  br i1 %84, label %.preheader, label %._crit_edge, !llvm.loop !92

.thread72:                                        ; preds = %44, %56, %52, %73, %77, %.critedge
  call void @llvm.lifetime.end.p0(i64 512, ptr nonnull %4) #15
  br label %.thread77

._crit_edge:                                      ; preds = %81, %.preheader92
  %85 = sub i64 %.04897, %42
  call void @llvm.lifetime.end.p0(i64 512, ptr nonnull %4) #15
  %.not = icmp eq i64 %85, 0
  br i1 %.not, label %.thread77, label %.preheader93

.thread77.thread:                                 ; preds = %26, %38, %34
  %86 = tail call i32 @close(i32 noundef %5) #15
  br label %.thread88

.thread77:                                        ; preds = %._crit_edge, %.thread72
  %.04583 = phi i32 [ -1, %.thread72 ], [ 0, %._crit_edge ]
  %87 = tail call i32 @close(i32 noundef %5) #15
  %88 = tail call i32 @close(i32 noundef %24) #15
  br label %.thread88

.thread88:                                        ; preds = %.thread77.thread, %15, %19, %7, %.thread77
  %.0458291 = phi i32 [ %.04583, %.thread77 ], [ -1, %7 ], [ -1, %19 ], [ -1, %15 ], [ -1, %.thread77.thread ]
  ret i32 %.0458291
}